target datalayout = "e-m:e-p270:32:32-p271:32:32-p272:64:64-i64:64-i128:128-f80:128-n8:16:32:64-S128"
target triple = "x86_64-pc-linux-gnu"

; Function Attrs: mustprogress nounwind uwtable
define internal noundef i64 @_ZN6google8protobuf8internalL10VarintSizeILb0ELb0EjEEmPKT1_i(ptr noundef %0, i32 noundef %1) #5 {
  %3 = alloca ptr, align 8
  %4 = alloca i32, align 4
  %5 = alloca i32, align 4
  %6 = alloca i32, align 4
  %7 = alloca i32, align 4
  %8 = alloca i32, align 4
  store ptr %0, ptr %3, align 8
  store i32 %1, ptr %4, align 4
  %9 = load i32, ptr %4, align 4
  store i32 %9, ptr %5, align 4
  store i32 0, ptr %6, align 4
  store i32 0, ptr %7, align 4
  br label %10

10:                                               ; preds = %44, %2
  %11 = load i32, ptr %7, align 4
  %12 = load i32, ptr %4, align 4
  %13 = icmp slt i32 %11, %12
  br i1 %13, label %14, label %47

14:                                               ; preds = %10
  %15 = load ptr, ptr %3, align 8
  %16 = load i32, ptr %7, align 4
  %17 = sext i32 %16 to i64
  %18 = getelementptr inbounds i32, ptr %15, i64 %17
  %19 = load i32, ptr %18, align 4
  store i32 %19, ptr %8, align 4
  %20 = load i32, ptr %8, align 4
  %21 = icmp ugt i32 %20, 127
  br i1 %21, label %22, label %25

22:                                               ; preds = %14
  %23 = load i32, ptr %5, align 4
  %24 = add i32 %23, 1
  store i32 %24, ptr %5, align 4
  br label %25

25:                                               ; preds = %22, %14
  %26 = load i32, ptr %8, align 4
  %27 = icmp ugt i32 %26, 16383
  br i1 %27, label %28, label %31

28:                                               ; preds = %25
  %29 = load i32, ptr %5, align 4
  %30 = add i32 %29, 1
  store i32 %30, ptr %5, align 4
  br label %31

31:                                               ; preds = %28, %25
  %32 = load i32, ptr %8, align 4
  %33 = icmp ugt i32 %32, 2097151
  br i1 %33, label %34, label %37

34:                                               ; preds = %31
  %35 = load i32, ptr %5, align 4
  %36 = add i32 %35, 1
  store i32 %36, ptr %5, align 4
  br label %37

37:                                               ; preds = %34, %31
  %38 = load i32, ptr %8, align 4
  %39 = icmp ugt i32 %38, 268435455
  br i1 %39, label %40, label %43

40:                                               ; preds = %37
  %41 = load i32, ptr %5, align 4
  %42 = add i32 %41, 1
  store i32 %42, ptr %5, align 4
  br label %43

43:                                               ; preds = %40, %37
  br label %44

44:                                               ; preds = %43
  %45 = load i32, ptr %7, align 4
  %46 = add nsw i32 %45, 1
  store i32 %46, ptr %7, align 4
  br label %10, !llvm.loop !9

47:                                               ; preds = %10
  %48 = load i32, ptr %5, align 4
  %49 = zext i32 %48 to i64
  ret i64 %49
}

; Function Attrs: mustprogress uwtable
define noundef i64 @_ZN6google8protobuf8internal14WireFormatLite10UInt32SizeERKNS0_13RepeatedFieldIjEE(ptr noundef nonnull align 8 dereferenceable(16) %0) #4 align 2 {
  %2 = alloca ptr, align 8
  store ptr %0, ptr %2, align 8
  %3 = load ptr, ptr %2, align 8
  %4 = call noundef ptr @_ZNK6google8protobuf13RepeatedFieldIjE4dataEv(ptr noundef nonnull align 8 dereferenceable(16) %3)
  %5 = load ptr, ptr %2, align 8
  %6 = call noundef i32 @_ZNK6google8protobuf13RepeatedFieldIjE4sizeEv(ptr noundef nonnull align 8 dereferenceable(16) %5)
  %7 = call noundef i64 @_ZN6google8protobuf8internalL10VarintSizeILb0ELb0EjEEmPKT1_i(ptr noundef %4, i32 noundef %6)
  ret i64 %7
}