; Function Attrs: mustprogress uwtable
define noundef range(i64 0, 4294967296) i64 @_ZN6google8protobuf8internal14WireFormatLite10UInt32SizeERKNS0_13RepeatedFieldIjEE(ptr noundef nonnull align 8 dereferenceable(16) %0) local_unnamed_addr #3 align 2 {
  %2 = tail call noundef ptr @_ZNK6google8protobuf13RepeatedFieldIjE4dataEv(ptr noundef nonnull align 8 dereferenceable(16) %0)
  %3 = tail call noundef i32 @_ZNK6google8protobuf13RepeatedFieldIjE4sizeEv(ptr noundef nonnull align 8 dereferenceable(16) %0)
  %4 = icmp sgt i32 %3, 0
  br i1 %4, label %.lr.ph.preheader.i, label %_ZN6google8protobuf8internalL10VarintSizeILb0ELb0EjEEmPKT1_i.exit

.lr.ph.preheader.i:                               ; preds = %1
  %wide.trip.count.i = zext nneg i32 %3 to i64
  br label %.lr.ph.i

.lr.ph.i:                                         ; preds = %.lr.ph.i, %.lr.ph.preheader.i
  %indvars.iv.i = phi i64 [ 0, %.lr.ph.preheader.i ], [ %indvars.iv.next.i, %.lr.ph.i ]
  %.016.i = phi i32 [ %3, %.lr.ph.preheader.i ], [ %op.rdx, %.lr.ph.i ]
  %5 = getelementptr inbounds i32, ptr %2, i64 %indvars.iv.i
  %6 = load i32, ptr %5, align 4
  %7 = insertelement <4 x i32> poison, i32 %6, i64 0
  %8 = shufflevector <4 x i32> %7, <4 x i32> poison, <4 x i32> zeroinitializer
  %9 = icmp ugt <4 x i32> %8, <i32 127, i32 16383, i32 2097151, i32 268435455>
  %10 = bitcast <4 x i1> %9 to i4
  %11 = tail call range(i4 0, 5) i4 @llvm.ctpop.i4(i4 %10)
  %12 = zext nneg i4 %11 to i32
  %op.rdx = add i32 %.016.i, %12
  %indvars.iv.next.i = add nuw nsw i64 %indvars.iv.i, 1
  %exitcond.not.i = icmp eq i64 %indvars.iv.next.i, %wide.trip.count.i
  br i1 %exitcond.not.i, label %_ZN6google8protobuf8internalL10VarintSizeILb0ELb0EjEEmPKT1_i.exit, label %.lr.ph.i, !llvm.loop !11

_ZN6google8protobuf8internalL10VarintSizeILb0ELb0EjEEmPKT1_i.exit: ; preds = %.lr.ph.i, %1
  %.0.lcssa.i = phi i32 [ %3, %1 ], [ %op.rdx, %.lr.ph.i ]
  %13 = zext i32 %.0.lcssa.i to i64
  ret i64 %13
}